target datalayout = "e-m:e-p270:32:32-p271:32:32-p272:64:64-i64:64-i128:128-f80:128-n8:16:32:64-S128"
target triple = "x86_64-pc-linux-gnu"

@hf_ntlmssp_string_len = internal global i32 0, align 4
@hf_ntlmssp_string_maxlen = internal global i32 0, align 4
@hf_ntlmssp_string_offset = internal global i32 0, align 4
@ett_ntlmssp_string = internal global i32 0, align 4
@.str.292 = private unnamed_addr constant [5 x i8] c"NULL\00", align 1
@.str.293 = private unnamed_addr constant [1 x i8] zeroinitializer, align 1

; Function Attrs: null_pointer_is_valid sspstrong uwtable
define internal i32 @dissect_ntlmssp_string(ptr noundef %0, i32 noundef %1, ptr noundef %2, i1 noundef zeroext %3, i32 noundef %4, ptr noundef %5, ptr noundef %6, ptr noundef %7) #0 {
  %9 = alloca i32, align 4
  %10 = alloca ptr, align 8
  %11 = alloca i32, align 4
  %12 = alloca ptr, align 8
  %13 = alloca i8, align 1
  %14 = alloca i32, align 4
  %15 = alloca ptr, align 8
  %16 = alloca ptr, align 8
  %17 = alloca ptr, align 8
  %18 = alloca ptr, align 8
  %19 = alloca ptr, align 8
  %20 = alloca i16, align 2
  %21 = alloca i16, align 2
  %22 = alloca i32, align 4
  %23 = alloca i32, align 4
  store ptr %0, ptr %10, align 8
  store i32 %1, ptr %11, align 4
  store ptr %2, ptr %12, align 8
  %24 = zext i1 %3 to i8
  store i8 %24, ptr %13, align 1
  store i32 %4, ptr %14, align 4
  store ptr %5, ptr %15, align 8
  store ptr %6, ptr %16, align 8
  store ptr %7, ptr %17, align 8
  call void @llvm.lifetime.start.p0(i64 8, ptr %18) #17
  store ptr null, ptr %18, align 8
  call void @llvm.lifetime.start.p0(i64 8, ptr %19) #17
  store ptr null, ptr %19, align 8
  call void @llvm.lifetime.start.p0(i64 2, ptr %20) #17
  %25 = load ptr, ptr %10, align 8
  %26 = load i32, ptr %11, align 4
  %27 = call zeroext i16 @tvb_get_letohs(ptr noundef %25, i32 noundef %26)
  store i16 %27, ptr %20, align 2
  call void @llvm.lifetime.start.p0(i64 2, ptr %21) #17
  %28 = load ptr, ptr %10, align 8
  %29 = load i32, ptr %11, align 4
  %30 = add i32 %29, 2
  %31 = call zeroext i16 @tvb_get_letohs(ptr noundef %28, i32 noundef %30)
  store i16 %31, ptr %21, align 2
  call void @llvm.lifetime.start.p0(i64 4, ptr %22) #17
  %32 = load ptr, ptr %10, align 8
  %33 = load i32, ptr %11, align 4
  %34 = add i32 %33, 4
  %35 = call i32 @tvb_get_letohl(ptr noundef %32, i32 noundef %34)
  store i32 %35, ptr %22, align 4
  %36 = load i32, ptr %22, align 4
  %37 = load i32, ptr %11, align 4
  %38 = add i32 %37, 8
  %39 = icmp sgt i32 %36, %38
  br i1 %39, label %40, label %42

40:                                               ; preds = %8
  %41 = load i32, ptr %22, align 4
  br label %45

42:                                               ; preds = %8
  %43 = load ptr, ptr %10, align 8
  %44 = call i32 @tvb_reported_length(ptr noundef %43)
  br label %45

45:                                               ; preds = %42, %40
  %46 = phi i32 [ %41, %40 ], [ %44, %42 ]
  %47 = load ptr, ptr %15, align 8
  store i32 %46, ptr %47, align 4
  %48 = load i16, ptr %20, align 2
  %49 = sext i16 %48 to i32
  %50 = icmp eq i32 0, %49
  br i1 %50, label %51, label %71

51:                                               ; preds = %45
  %52 = load ptr, ptr %15, align 8
  %53 = load i32, ptr %52, align 4
  %54 = load ptr, ptr %16, align 8
  store i32 %53, ptr %54, align 4
  %55 = load ptr, ptr %12, align 8
  %56 = icmp ne ptr %55, null
  br i1 %56, label %57, label %63

57:                                               ; preds = %51
  %58 = load ptr, ptr %12, align 8
  %59 = load i32, ptr %14, align 4
  %60 = load ptr, ptr %10, align 8
  %61 = load i32, ptr %11, align 4
  %62 = call ptr @proto_tree_add_string(ptr noundef %58, i32 noundef %59, ptr noundef %60, i32 noundef %61, i32 noundef 8, ptr noundef @.str.292)
  br label %63

63:                                               ; preds = %57, %51
  %64 = load ptr, ptr %17, align 8
  %65 = icmp ne ptr %64, null
  br i1 %65, label %66, label %68

66:                                               ; preds = %63
  %67 = load ptr, ptr %17, align 8
  store ptr @.str.293, ptr %67, align 8
  br label %68

68:                                               ; preds = %66, %63
  %69 = load i32, ptr %11, align 4
  %70 = add i32 %69, 8
  store i32 %70, ptr %9, align 4
  store i32 1, ptr %23, align 4
  br label %130

71:                                               ; preds = %45
  %72 = load i8, ptr %13, align 1, !range !12, !noundef !13
  %73 = trunc i8 %72 to i1
  br i1 %73, label %74, label %82

74:                                               ; preds = %71
  %75 = load i32, ptr %22, align 4
  %76 = and i32 %75, 1
  %77 = icmp ne i32 %76, 0
  br i1 %77, label %78, label %81

78:                                               ; preds = %74
  %79 = load i32, ptr %22, align 4
  %80 = add i32 %79, 1
  store i32 %80, ptr %22, align 4
  br label %81

81:                                               ; preds = %78, %74
  br label %82

82:                                               ; preds = %81, %71
  %83 = load ptr, ptr %12, align 8
  %84 = load i32, ptr %14, align 4
  %85 = load ptr, ptr %10, align 8
  %86 = load i32, ptr %22, align 4
  %87 = load i16, ptr %20, align 2
  %88 = sext i16 %87 to i32
  %89 = load i8, ptr %13, align 1, !range !12, !noundef !13
  %90 = trunc i8 %89 to i1
  %91 = select i1 %90, i32 -2147483644, i32 0
  %92 = call ptr @wmem_packet_scope()
  %93 = load ptr, ptr %17, align 8
  %94 = call ptr @proto_tree_add_item_ret_string(ptr noundef %83, i32 noundef %84, ptr noundef %85, i32 noundef %86, i32 noundef %88, i32 noundef %91, ptr noundef %92, ptr noundef %93)
  store ptr %94, ptr %19, align 8
  %95 = load ptr, ptr %19, align 8
  %96 = load i32, ptr @ett_ntlmssp_string, align 4
  %97 = call ptr @proto_item_add_subtree(ptr noundef %95, i32 noundef %96)
  store ptr %97, ptr %18, align 8
  %98 = load ptr, ptr %18, align 8
  %99 = load i32, ptr @hf_ntlmssp_string_len, align 4
  %100 = load ptr, ptr %10, align 8
  %101 = load i32, ptr %11, align 4
  %102 = load i16, ptr %20, align 2
  %103 = sext i16 %102 to i32
  %104 = call ptr @proto_tree_add_uint(ptr noundef %98, i32 noundef %99, ptr noundef %100, i32 noundef %101, i32 noundef 2, i32 noundef %103)
  %105 = load i32, ptr %11, align 4
  %106 = add i32 %105, 2
  store i32 %106, ptr %11, align 4
  %107 = load ptr, ptr %18, align 8
  %108 = load i32, ptr @hf_ntlmssp_string_maxlen, align 4
  %109 = load ptr, ptr %10, align 8
  %110 = load i32, ptr %11, align 4
  %111 = load i16, ptr %21, align 2
  %112 = sext i16 %111 to i32
  %113 = call ptr @proto_tree_add_uint(ptr noundef %107, i32 noundef %108, ptr noundef %109, i32 noundef %110, i32 noundef 2, i32 noundef %112)
  %114 = load i32, ptr %11, align 4
  %115 = add i32 %114, 2
  store i32 %115, ptr %11, align 4
  %116 = load ptr, ptr %18, align 8
  %117 = load i32, ptr @hf_ntlmssp_string_offset, align 4
  %118 = load ptr, ptr %10, align 8
  %119 = load i32, ptr %11, align 4
  %120 = load i32, ptr %22, align 4
  %121 = call ptr @proto_tree_add_uint(ptr noundef %116, i32 noundef %117, ptr noundef %118, i32 noundef %119, i32 noundef 4, i32 noundef %120)
  %122 = load i32, ptr %11, align 4
  %123 = add i32 %122, 4
  store i32 %123, ptr %11, align 4
  %124 = load i32, ptr %22, align 4
  %125 = load i16, ptr %20, align 2
  %126 = sext i16 %125 to i32
  %127 = add i32 %124, %126
  %128 = load ptr, ptr %16, align 8
  store i32 %127, ptr %128, align 4
  %129 = load i32, ptr %11, align 4
  store i32 %129, ptr %9, align 4
  store i32 1, ptr %23, align 4
  br label %130

130:                                              ; preds = %82, %68
  call void @llvm.lifetime.end.p0(i64 4, ptr %22) #17
  call void @llvm.lifetime.end.p0(i64 2, ptr %21) #17
  call void @llvm.lifetime.end.p0(i64 2, ptr %20) #17
  call void @llvm.lifetime.end.p0(i64 8, ptr %19) #17
  call void @llvm.lifetime.end.p0(i64 8, ptr %18) #17
  %131 = load i32, ptr %9, align 4
  ret i32 %131
}