; Function Attrs: null_pointer_is_valid sspstrong uwtable
define internal fastcc noundef i32 @dissect_ntlmssp_string(ptr noundef %0, i32 noundef %1, ptr noundef %2, i1 noundef zeroext %3, i32 noundef %4, ptr noundef writeonly captures(none) initializes((0, 4)) %5, ptr noundef writeonly captures(none) initializes((0, 4)) %6, ptr noundef %7) unnamed_addr #0 {
  %9 = tail call zeroext i16 @tvb_get_letohs(ptr noundef %0, i32 noundef %1)
  %10 = add i32 %1, 2
  %11 = tail call zeroext i16 @tvb_get_letohs(ptr noundef %0, i32 noundef %10)
  %12 = add i32 %1, 4
  %13 = tail call i32 @tvb_get_letohl(ptr noundef %0, i32 noundef %12)
  %14 = add i32 %1, 8
  %15 = icmp sgt i32 %13, %14
  br i1 %15, label %18, label %16

16:                                               ; preds = %8
  %17 = tail call i32 @tvb_reported_length(ptr noundef %0)
  br label %18

18:                                               ; preds = %8, %16
  %19 = phi i32 [ %17, %16 ], [ %13, %8 ]
  store i32 %19, ptr %5, align 4
  %20 = icmp eq i16 %9, 0
  br i1 %20, label %21, label %26

21:                                               ; preds = %18
  store i32 %19, ptr %6, align 4
  %.not57 = icmp eq ptr %2, null
  br i1 %.not57, label %24, label %22

22:                                               ; preds = %21
  %23 = tail call ptr @proto_tree_add_string(ptr noundef nonnull %2, i32 noundef %4, ptr noundef %0, i32 noundef %1, i32 noundef 8, ptr noundef nonnull @.str.292)
  br label %24

24:                                               ; preds = %22, %21
  %.not58 = icmp eq ptr %7, null
  br i1 %.not58, label %42, label %25

25:                                               ; preds = %24
  store ptr @.str.293, ptr %7, align 8
  br label %42

26:                                               ; preds = %18
  %27 = sext i16 %9 to i32
  %28 = and i32 %13, 1
  %29 = select i1 %3, i32 -2147483644, i32 0
  %spec.select = select i1 %3, i32 %28, i32 0
  %.0 = add i32 %spec.select, %13
  %30 = tail call ptr @wmem_packet_scope()
  %31 = tail call ptr @proto_tree_add_item_ret_string(ptr noundef %2, i32 noundef %4, ptr noundef %0, i32 noundef %.0, i32 noundef %27, i32 noundef %29, ptr noundef %30, ptr noundef %7)
  %32 = load i32, ptr @ett_ntlmssp_string, align 4
  %33 = tail call ptr @proto_item_add_subtree(ptr noundef %31, i32 noundef %32)
  %34 = load i32, ptr @hf_ntlmssp_string_len, align 4
  %35 = tail call ptr @proto_tree_add_uint(ptr noundef %33, i32 noundef %34, ptr noundef %0, i32 noundef %1, i32 noundef 2, i32 noundef %27)
  %36 = load i32, ptr @hf_ntlmssp_string_maxlen, align 4
  %37 = sext i16 %11 to i32
  %38 = tail call ptr @proto_tree_add_uint(ptr noundef %33, i32 noundef %36, ptr noundef %0, i32 noundef %10, i32 noundef 2, i32 noundef %37)
  %39 = load i32, ptr @hf_ntlmssp_string_offset, align 4
  %40 = tail call ptr @proto_tree_add_uint(ptr noundef %33, i32 noundef %39, ptr noundef %0, i32 noundef %12, i32 noundef 4, i32 noundef %.0)
  %41 = add i32 %.0, %27
  store i32 %41, ptr %6, align 4
  br label %42

42:                                               ; preds = %24, %25, %26
  ret i32 %14
}